; Function Attrs: mustprogress uwtable
define noundef double @_ZN6icu_7717double_conversion13StrtodTrimmedENS0_6VectorIKcEEi(ptr %0, i32 %1, i32 noundef %2) local_unnamed_addr #0 {
  %4 = alloca double, align 8
  call void @llvm.lifetime.start.p0(i64 8, ptr nonnull %4) #6
  %5 = call fastcc noundef zeroext i1 @_ZN6icu_7717double_conversionL12ComputeGuessENS0_6VectorIKcEEiPd(ptr %0, i32 %1, i32 noundef %2, ptr noundef %4)
  %6 = load double, ptr %4, align 8, !tbaa !3
  br i1 %5, label %_ZNK6icu_7717double_conversion6Double10NextDoubleEv.exit, label %7

7:                                                ; preds = %3
  %8 = bitcast double %6 to i64
  %9 = and i64 %8, 9218868437227405312
  %10 = icmp eq i64 %9, 0
  %11 = shl i64 %8, 1
  %12 = and i64 %11, 9007199254740990
  %13 = or disjoint i64 %12, 9007199254740992
  %14 = select i1 %10, i64 %12, i64 %13
  %15 = or disjoint i64 %14, 1
  %16 = lshr i64 %8, 52
  %17 = trunc nuw nsw i64 %16 to i32
  %18 = and i32 %17, 2047
  %19 = add nsw i32 %18, -1076
  %20 = select i1 %10, i32 -1075, i32 %19
  %21 = tail call fastcc noundef i32 @_ZN6icu_7717double_conversionL22CompareBufferWithDiyFpENS0_6VectorIKcEEiNS0_5DiyFpE(ptr %0, i32 %1, i32 noundef %2, i64 %15, i32 %20)
  %22 = icmp slt i32 %21, 0
  br i1 %22, label %_ZNK6icu_7717double_conversion6Double10NextDoubleEv.exit, label %23

23:                                               ; preds = %7
  %.not = icmp eq i32 %21, 0
  br i1 %.not, label %36, label %24

24:                                               ; preds = %23
  %25 = icmp eq i64 %8, 9218868437227405312
  br i1 %25, label %_ZNK6icu_7717double_conversion6Double10NextDoubleEv.exit, label %26

26:                                               ; preds = %24
  %27 = icmp slt i64 %8, 0
  br i1 %27, label %28, label %33

28:                                               ; preds = %26
  %29 = fcmp oeq double %6, 0.000000e+00
  br i1 %29, label %_ZNK6icu_7717double_conversion6Double10NextDoubleEv.exit, label %30

30:                                               ; preds = %28
  %31 = add i64 %8, -1
  %32 = bitcast i64 %31 to double
  br label %_ZNK6icu_7717double_conversion6Double10NextDoubleEv.exit

33:                                               ; preds = %26
  %34 = add nuw i64 %8, 1
  %35 = bitcast i64 %34 to double
  br label %_ZNK6icu_7717double_conversion6Double10NextDoubleEv.exit

36:                                               ; preds = %23
  %37 = and i64 %8, 1
  %38 = icmp eq i64 %37, 0
  br i1 %38, label %_ZNK6icu_7717double_conversion6Double10NextDoubleEv.exit, label %39

39:                                               ; preds = %36
  %40 = icmp slt i64 %8, 0
  br i1 %40, label %41, label %46

41:                                               ; preds = %39
  %42 = fcmp oeq double %6, 0.000000e+00
  br i1 %42, label %_ZNK6icu_7717double_conversion6Double10NextDoubleEv.exit, label %43

43:                                               ; preds = %41
  %44 = add nsw i64 %8, -1
  %45 = bitcast i64 %44 to double
  br label %_ZNK6icu_7717double_conversion6Double10NextDoubleEv.exit

46:                                               ; preds = %39
  %47 = add nuw i64 %8, 1
  %48 = bitcast i64 %47 to double
  br label %_ZNK6icu_7717double_conversion6Double10NextDoubleEv.exit

_ZNK6icu_7717double_conversion6Double10NextDoubleEv.exit: ; preds = %3, %46, %43, %41, %36, %33, %30, %28, %24, %7
  %.0 = phi double [ %6, %7 ], [ %32, %30 ], [ %35, %33 ], [ 0.000000e+00, %28 ], [ 0x7FF0000000000000, %24 ], [ %6, %36 ], [ %45, %43 ], [ %48, %46 ], [ 0.000000e+00, %41 ], [ %6, %3 ]
  call void @llvm.lifetime.end.p0(i64 8, ptr nonnull %4) #6
  ret double %.0
}